(i__main__
car
p1
(dp2
S'vehID'
p3
S'2345'
p4
sS'vehSize'
p5
S'12345'
p6
sS'reg'
p7
I1000
sb.(i__main__
car
p1
(dp2
S'vehID'
p3
S'123'
p4
sS'vehSize'
p5
S'54321'
p6
sS'reg'
p7
I900
sb.(i__main__
car
p1
(dp2
S'vehID'
p3
S'120'
p4
sS'vehSize'
p5
S'42314'
p6
sS'reg'
p7
I1200
sb.